; Function Attrs: nounwind uwtable
define range(i32 0, 2) i32 @Gia_ManMuxProfile(ptr noundef readonly captures(none) %0, i32 noundef %1) local_unnamed_addr #0 {
Vec_IntStart.exit:
  %calloc = tail call dereferenceable_or_null(4000) ptr @calloc(i64 1, i64 4000)
  %.not = icmp eq i32 %1, 0
  %2 = getelementptr inbounds nuw i8, ptr %0, i64 16
  %3 = load ptr, ptr %2, align 8
  %4 = getelementptr i8, ptr %3, i64 4
  %.val4665 = load i32, ptr %4, align 4
  %5 = icmp sgt i32 %.val4665, 1
  br i1 %.not, label %.preheader, label %.preheader61

.preheader61:                                     ; preds = %Vec_IntStart.exit
  br i1 %5, label %.lr.ph, label %.lr.ph.i.preheader

.lr.ph:                                           ; preds = %.preheader61
  %6 = getelementptr i8, ptr %3, i64 8
  %.val47 = load ptr, ptr %6, align 8
  %wide.trip.count = zext nneg i32 %.val4665 to i64
  br label %8

.preheader:                                       ; preds = %Vec_IntStart.exit
  br i1 %5, label %.lr.ph67, label %.lr.ph.i.preheader

.lr.ph67:                                         ; preds = %.preheader
  %7 = getelementptr inbounds nuw i8, ptr %0, i64 8
  br label %15

8:                                                ; preds = %.lr.ph, %8
  %indvars.iv = phi i64 [ 1, %.lr.ph ], [ %indvars.iv.next, %8 ]
  %9 = getelementptr %struct.Vec_Int_t_, ptr %.val47, i64 %indvars.iv, i32 1
  %.val41 = load i32, ptr %9, align 4
  %10 = tail call range(i32 -2147483648, 536870913) i32 @llvm.smin.i32(i32 %.val41, i32 999)
  %11 = sext i32 %10 to i64
  %12 = getelementptr inbounds i32, ptr %calloc, i64 %11
  %13 = load i32, ptr %12, align 4
  %14 = add nsw i32 %13, 1
  store i32 %14, ptr %12, align 4
  %indvars.iv.next = add nuw nsw i64 %indvars.iv, 1
  %exitcond.not = icmp eq i64 %indvars.iv.next, %wide.trip.count
  br i1 %exitcond.not, label %.lr.ph.i.preheader, label %8, !llvm.loop !20

15:                                               ; preds = %.lr.ph67, %15
  %.166 = phi i32 [ 1, %.lr.ph67 ], [ %24, %15 ]
  %16 = load ptr, ptr %7, align 8
  %17 = tail call ptr @Abc_NamStr(ptr noundef %16, i32 noundef %.166) #26
  %18 = tail call i32 @atoi(ptr noundef %17) #27
  %19 = tail call range(i32 -2147483648, 536870913) i32 @llvm.smin.i32(i32 %18, i32 999)
  %20 = sext i32 %19 to i64
  %21 = getelementptr inbounds i32, ptr %calloc, i64 %20
  %22 = load i32, ptr %21, align 4
  %23 = add nsw i32 %22, 1
  store i32 %23, ptr %21, align 4
  %24 = add nuw nsw i32 %.166, 1
  %25 = load ptr, ptr %2, align 8
  %26 = getelementptr i8, ptr %25, i64 4
  %.val46 = load i32, ptr %26, align 4
  %27 = icmp slt i32 %24, %.val46
  br i1 %27, label %15, label %.lr.ph.i.preheader, !llvm.loop !21

.lr.ph.i.preheader:                               ; preds = %8, %15, %.preheader61, %.preheader
  br label %.lr.ph.i

.lr.ph.i:                                         ; preds = %.lr.ph.i.preheader, %.lr.ph.i
  %indvars.iv.i = phi i64 [ %indvars.iv.next.i, %.lr.ph.i ], [ 0, %.lr.ph.i.preheader ]
  %.08.i = phi i32 [ %32, %.lr.ph.i ], [ 0, %.lr.ph.i.preheader ]
  %28 = getelementptr inbounds nuw i32, ptr %calloc, i64 %indvars.iv.i
  %29 = load i32, ptr %28, align 4
  %30 = icmp sgt i32 %29, 0
  %31 = zext i1 %30 to i32
  %32 = add nuw nsw i32 %.08.i, %31
  %indvars.iv.next.i = add nuw nsw i64 %indvars.iv.i, 1
  %exitcond.not.i = icmp eq i64 %indvars.iv.next.i, 1000
  br i1 %exitcond.not.i, label %Vec_IntCountPositive.exit, label %.lr.ph.i, !llvm.loop !22

Vec_IntCountPositive.exit:                        ; preds = %.lr.ph.i
  %33 = icmp eq i32 %32, 0
  br i1 %33, label %61, label %34

34:                                               ; preds = %Vec_IntCountPositive.exit
  %35 = select i1 %.not, ptr @.str.15, ptr @.str.14
  %36 = tail call i32 (ptr, ...) @printf(ptr noundef nonnull dereferenceable(1) @.str.13, ptr noundef nonnull %35)
  br label %37

37:                                               ; preds = %34, %47
  %indvars.iv73 = phi i64 [ 0, %34 ], [ %indvars.iv.next74, %47 ]
  %.03368 = phi i32 [ 0, %34 ], [ %.134, %47 ]
  %38 = getelementptr inbounds nuw i32, ptr %calloc, i64 %indvars.iv73
  %39 = load i32, ptr %38, align 4
  %.not39 = icmp eq i32 %39, 0
  br i1 %.not39, label %47, label %40

40:                                               ; preds = %37
  %41 = add nsw i32 %.03368, 1
  %42 = icmp eq i32 %41, 12
  br i1 %42, label %43, label %44

43:                                               ; preds = %40
  %putchar40 = tail call i32 @putchar(i32 10)
  br label %44

44:                                               ; preds = %43, %40
  %.235 = phi i32 [ 0, %43 ], [ %41, %40 ]
  %45 = trunc nuw nsw i64 %indvars.iv73 to i32
  %46 = tail call i32 (ptr, ...) @printf(ptr noundef nonnull dereferenceable(1) @.str.16, i32 noundef %45, i32 noundef %39)
  br label %47

47:                                               ; preds = %37, %44
  %.134 = phi i32 [ %.235, %44 ], [ %.03368, %37 ]
  %indvars.iv.next74 = add nuw nsw i64 %indvars.iv73, 1
  %exitcond76.not = icmp eq i64 %indvars.iv.next74, 1000
  br i1 %exitcond76.not, label %.lr.ph.preheader.i, label %37, !llvm.loop !23

.lr.ph.preheader.i:                               ; preds = %47
  %48 = tail call i32 (ptr, ...) @printf(ptr noundef nonnull dereferenceable(1) @.str.17)
  %49 = load i32, ptr %calloc, align 4
  br label %.lr.ph.i49

.lr.ph.i49:                                       ; preds = %.lr.ph.i49, %.lr.ph.preheader.i
  %indvars.iv.i50 = phi i64 [ 1, %.lr.ph.preheader.i ], [ %indvars.iv.next.i51, %.lr.ph.i49 ]
  %.015.i = phi i32 [ %49, %.lr.ph.preheader.i ], [ %spec.select.i, %.lr.ph.i49 ]
  %50 = getelementptr inbounds nuw i32, ptr %calloc, i64 %indvars.iv.i50
  %51 = load i32, ptr %50, align 4
  %spec.select.i = tail call i32 @llvm.smax.i32(i32 %.015.i, i32 %51)
  %indvars.iv.next.i51 = add nuw nsw i64 %indvars.iv.i50, 1
  %exitcond.not.i52 = icmp eq i64 %indvars.iv.next.i51, 1000
  br i1 %exitcond.not.i52, label %.lr.ph.i54, label %.lr.ph.i49, !llvm.loop !24

.lr.ph.i54:                                       ; preds = %.lr.ph.i49
  %52 = tail call i32 (ptr, ...) @printf(ptr noundef nonnull dereferenceable(1) @.str.18, i32 noundef %spec.select.i)
  br label %53

53:                                               ; preds = %53, %.lr.ph.i54
  %indvars.iv.i56 = phi i64 [ 0, %.lr.ph.i54 ], [ %indvars.iv.next.i58, %53 ]
  %.08.i57 = phi i32 [ 0, %.lr.ph.i54 ], [ %56, %53 ]
  %54 = getelementptr inbounds nuw i32, ptr %calloc, i64 %indvars.iv.i56
  %55 = load i32, ptr %54, align 4
  %56 = add nsw i32 %55, %.08.i57
  %indvars.iv.next.i58 = add nuw nsw i64 %indvars.iv.i56, 1
  %exitcond.not.i59 = icmp eq i64 %indvars.iv.next.i58, 1000
  br i1 %exitcond.not.i59, label %Vec_IntFree.exit, label %53, !llvm.loop !25

Vec_IntFree.exit:                                 ; preds = %53
  %57 = sitofp i32 %56 to double
  %58 = uitofp nneg i32 %32 to double
  %59 = fdiv double %57, %58
  %60 = tail call i32 (ptr, ...) @printf(ptr noundef nonnull dereferenceable(1) @.str.19, double noundef %59)
  %putchar = tail call i32 @putchar(i32 10)
  tail call void @free(ptr noundef nonnull %calloc) #26
  br label %61

61:                                               ; preds = %Vec_IntCountPositive.exit, %Vec_IntFree.exit
  %.0 = phi i32 [ 1, %Vec_IntFree.exit ], [ 0, %Vec_IntCountPositive.exit ]
  ret i32 %.0
}